target datalayout = "e-m:e-p270:32:32-p271:32:32-p272:64:64-i64:64-i128:128-f80:128-n8:16:32:64-S128"
target triple = "x86_64-pc-linux-gnu"

%struct.hs_database = type { i32, i32, i32, i64, i32, i32, i32, i32, [16 x i32], [0 x i8] }

@hs_misc_alloc = external global ptr, align 8
@hs_misc_free = external global ptr, align 8

; Function Attrs: alwaysinline nounwind uwtable
define internal ptr @hs_get_bytecode(ptr noundef %0) #1 {
  %2 = alloca ptr, align 8
  store ptr %0, ptr %2, align 8
  %3 = load ptr, ptr %2, align 8
  %4 = load ptr, ptr %2, align 8
  %5 = getelementptr inbounds nuw %struct.hs_database, ptr %4, i32 0, i32 7
  %6 = load i32, ptr %5, align 4
  %7 = zext i32 %6 to i64
  %8 = getelementptr inbounds nuw i8, ptr %3, i64 %7
  ret ptr %8
}

; Function Attrs: alwaysinline nounwind uwtable
define internal i32 @hs_check_alloc(ptr noundef %0) #1 {
  %2 = alloca ptr, align 8
  %3 = alloca i32, align 4
  store ptr %0, ptr %2, align 8
  call void @llvm.lifetime.start.p0(i64 4, ptr %3) #8
  store i32 0, ptr %3, align 4
  %4 = load ptr, ptr %2, align 8
  %5 = icmp ne ptr %4, null
  br i1 %5, label %7, label %6

6:                                                ; preds = %1
  store i32 -2, ptr %3, align 4
  br label %14

7:                                                ; preds = %1
  %8 = load ptr, ptr %2, align 8
  %9 = ptrtoint ptr %8 to i64
  %10 = and i64 %9, 7
  %11 = icmp eq i64 %10, 0
  br i1 %11, label %13, label %12

12:                                               ; preds = %7
  store i32 -9, ptr %3, align 4
  br label %13

13:                                               ; preds = %12, %7
  br label %14

14:                                               ; preds = %13, %6
  %15 = load i32, ptr %3, align 4
  call void @llvm.lifetime.end.p0(i64 4, ptr %3) #8
  ret i32 %15
}

; Function Attrs: alwaysinline nounwind uwtable
define internal i32 @validDatabase(ptr noundef %0) #1 {
  %2 = alloca i32, align 4
  %3 = alloca ptr, align 8
  store ptr %0, ptr %3, align 8
  %4 = load ptr, ptr %3, align 8
  %5 = icmp ne ptr %4, null
  br i1 %5, label %6, label %11

6:                                                ; preds = %1
  %7 = load ptr, ptr %3, align 8
  %8 = getelementptr inbounds nuw %struct.hs_database, ptr %7, i32 0, i32 0
  %9 = load i32, ptr %8, align 8
  %10 = icmp ne i32 %9, -606348325
  br i1 %10, label %11, label %12

11:                                               ; preds = %6, %1
  store i32 -1, ptr %2, align 4
  br label %19

12:                                               ; preds = %6
  %13 = load ptr, ptr %3, align 8
  %14 = getelementptr inbounds nuw %struct.hs_database, ptr %13, i32 0, i32 1
  %15 = load i32, ptr %14, align 4
  %16 = icmp ne i32 %15, 84148736
  br i1 %16, label %17, label %18

17:                                               ; preds = %12
  store i32 -5, ptr %2, align 4
  br label %19

18:                                               ; preds = %12
  store i32 0, ptr %2, align 4
  br label %19

19:                                               ; preds = %18, %17, %11
  %20 = load i32, ptr %2, align 4
  ret i32 %20
}

; Function Attrs: alwaysinline nounwind uwtable
define internal i32 @db_correctly_aligned(ptr noundef %0) #1 {
  %2 = alloca ptr, align 8
  store ptr %0, ptr %2, align 8
  %3 = load ptr, ptr %2, align 8
  %4 = ptrtoint ptr %3 to i64
  %5 = and i64 %4, 7
  %6 = icmp eq i64 %5, 0
  %7 = zext i1 %6 to i32
  ret i32 %7
}

; Function Attrs: nounwind uwtable
define dso_local i32 @hs_serialize_database(ptr noundef %0, ptr noundef %1, ptr noundef %2) #0 {
  %4 = alloca i32, align 4
  %5 = alloca ptr, align 8
  %6 = alloca ptr, align 8
  %7 = alloca ptr, align 8
  %8 = alloca i32, align 4
  %9 = alloca i32, align 4
  %10 = alloca i64, align 8
  %11 = alloca ptr, align 8
  %12 = alloca ptr, align 8
  %13 = alloca ptr, align 8
  store ptr %0, ptr %5, align 8
  store ptr %1, ptr %6, align 8
  store ptr %2, ptr %7, align 8
  %14 = load ptr, ptr %5, align 8
  %15 = icmp ne ptr %14, null
  br i1 %15, label %16, label %22

16:                                               ; preds = %3
  %17 = load ptr, ptr %6, align 8
  %18 = icmp ne ptr %17, null
  br i1 %18, label %19, label %22

19:                                               ; preds = %16
  %20 = load ptr, ptr %7, align 8
  %21 = icmp ne ptr %20, null
  br i1 %21, label %23, label %22

22:                                               ; preds = %19, %16, %3
  store i32 -1, ptr %4, align 4
  br label %111

23:                                               ; preds = %19
  %24 = load ptr, ptr %5, align 8
  %25 = call i32 @db_correctly_aligned(ptr noundef %24)
  %26 = icmp ne i32 %25, 0
  br i1 %26, label %28, label %27

27:                                               ; preds = %23
  store i32 -8, ptr %4, align 4
  br label %111

28:                                               ; preds = %23
  call void @llvm.lifetime.start.p0(i64 4, ptr %8) #8
  %29 = load ptr, ptr %5, align 8
  %30 = call i32 @validDatabase(ptr noundef %29)
  store i32 %30, ptr %8, align 4
  %31 = load i32, ptr %8, align 4
  %32 = icmp ne i32 %31, 0
  br i1 %32, label %33, label %35

33:                                               ; preds = %28
  %34 = load i32, ptr %8, align 4
  store i32 %34, ptr %4, align 4
  store i32 1, ptr %9, align 4
  br label %110

35:                                               ; preds = %28
  call void @llvm.lifetime.start.p0(i64 8, ptr %10) #8
  %36 = load ptr, ptr %5, align 8
  %37 = getelementptr inbounds nuw %struct.hs_database, ptr %36, i32 0, i32 2
  %38 = load i32, ptr %37, align 8
  %39 = zext i32 %38 to i64
  %40 = add i64 104, %39
  store i64 %40, ptr %10, align 8
  call void @llvm.lifetime.start.p0(i64 8, ptr %11) #8
  %41 = load ptr, ptr @hs_misc_alloc, align 8
  %42 = load i64, ptr %10, align 8
  %43 = call ptr %41(i64 noundef %42)
  store ptr %43, ptr %11, align 8
  %44 = load ptr, ptr %11, align 8
  %45 = call i32 @hs_check_alloc(ptr noundef %44)
  store i32 %45, ptr %8, align 4
  %46 = load i32, ptr %8, align 4
  %47 = icmp ne i32 %46, 0
  br i1 %47, label %48, label %52

48:                                               ; preds = %35
  %49 = load ptr, ptr @hs_misc_free, align 8
  %50 = load ptr, ptr %11, align 8
  call void %49(ptr noundef %50)
  %51 = load i32, ptr %8, align 4
  store i32 %51, ptr %4, align 4
  store i32 1, ptr %9, align 4
  br label %109

52:                                               ; preds = %35
  %53 = load ptr, ptr %11, align 8
  %54 = load i64, ptr %10, align 8
  call void @llvm.memset.p0.i64(ptr align 1 %53, i8 0, i64 %54, i1 false)
  call void @llvm.lifetime.start.p0(i64 8, ptr %12) #8
  %55 = load ptr, ptr %11, align 8
  store ptr %55, ptr %12, align 8
  %56 = load ptr, ptr %5, align 8
  %57 = getelementptr inbounds nuw %struct.hs_database, ptr %56, i32 0, i32 0
  %58 = load i32, ptr %57, align 8
  %59 = load ptr, ptr %12, align 8
  store i32 %58, ptr %59, align 4
  %60 = load ptr, ptr %12, align 8
  %61 = getelementptr inbounds nuw i32, ptr %60, i32 1
  store ptr %61, ptr %12, align 8
  %62 = load ptr, ptr %5, align 8
  %63 = getelementptr inbounds nuw %struct.hs_database, ptr %62, i32 0, i32 1
  %64 = load i32, ptr %63, align 4
  %65 = load ptr, ptr %12, align 8
  store i32 %64, ptr %65, align 4
  %66 = load ptr, ptr %12, align 8
  %67 = getelementptr inbounds nuw i32, ptr %66, i32 1
  store ptr %67, ptr %12, align 8
  %68 = load ptr, ptr %5, align 8
  %69 = getelementptr inbounds nuw %struct.hs_database, ptr %68, i32 0, i32 2
  %70 = load i32, ptr %69, align 8
  %71 = load ptr, ptr %12, align 8
  store i32 %70, ptr %71, align 4
  %72 = load ptr, ptr %12, align 8
  %73 = getelementptr inbounds nuw i32, ptr %72, i32 1
  store ptr %73, ptr %12, align 8
  %74 = load ptr, ptr %12, align 8
  %75 = load ptr, ptr %5, align 8
  %76 = getelementptr inbounds nuw %struct.hs_database, ptr %75, i32 0, i32 3
  call void @llvm.memcpy.p0.p0.i64(ptr align 4 %74, ptr align 8 %76, i64 8, i1 false)
  %77 = load ptr, ptr %12, align 8
  %78 = getelementptr inbounds i32, ptr %77, i64 2
  store ptr %78, ptr %12, align 8
  %79 = load ptr, ptr %5, align 8
  %80 = getelementptr inbounds nuw %struct.hs_database, ptr %79, i32 0, i32 4
  %81 = load i32, ptr %80, align 8
  %82 = load ptr, ptr %12, align 8
  store i32 %81, ptr %82, align 4
  %83 = load ptr, ptr %12, align 8
  %84 = getelementptr inbounds nuw i32, ptr %83, i32 1
  store ptr %84, ptr %12, align 8
  %85 = load ptr, ptr %5, align 8
  %86 = getelementptr inbounds nuw %struct.hs_database, ptr %85, i32 0, i32 5
  %87 = load i32, ptr %86, align 4
  %88 = load ptr, ptr %12, align 8
  store i32 %87, ptr %88, align 4
  %89 = load ptr, ptr %12, align 8
  %90 = getelementptr inbounds nuw i32, ptr %89, i32 1
  store ptr %90, ptr %12, align 8
  %91 = load ptr, ptr %5, align 8
  %92 = getelementptr inbounds nuw %struct.hs_database, ptr %91, i32 0, i32 6
  %93 = load i32, ptr %92, align 8
  %94 = load ptr, ptr %12, align 8
  store i32 %93, ptr %94, align 4
  %95 = load ptr, ptr %12, align 8
  %96 = getelementptr inbounds nuw i32, ptr %95, i32 1
  store ptr %96, ptr %12, align 8
  call void @llvm.lifetime.start.p0(i64 8, ptr %13) #8
  %97 = load ptr, ptr %5, align 8
  %98 = call ptr @hs_get_bytecode(ptr noundef %97)
  store ptr %98, ptr %13, align 8
  %99 = load ptr, ptr %12, align 8
  %100 = load ptr, ptr %13, align 8
  %101 = load ptr, ptr %5, align 8
  %102 = getelementptr inbounds nuw %struct.hs_database, ptr %101, i32 0, i32 2
  %103 = load i32, ptr %102, align 8
  %104 = zext i32 %103 to i64
  call void @llvm.memcpy.p0.p0.i64(ptr align 4 %99, ptr align 1 %100, i64 %104, i1 false)
  %105 = load ptr, ptr %11, align 8
  %106 = load ptr, ptr %6, align 8
  store ptr %105, ptr %106, align 8
  %107 = load i64, ptr %10, align 8
  %108 = load ptr, ptr %7, align 8
  store i64 %107, ptr %108, align 8
  store i32 0, ptr %4, align 4
  store i32 1, ptr %9, align 4
  call void @llvm.lifetime.end.p0(i64 8, ptr %13) #8
  call void @llvm.lifetime.end.p0(i64 8, ptr %12) #8
  br label %109

109:                                              ; preds = %52, %48
  call void @llvm.lifetime.end.p0(i64 8, ptr %11) #8
  call void @llvm.lifetime.end.p0(i64 8, ptr %10) #8
  br label %110

110:                                              ; preds = %109, %33
  call void @llvm.lifetime.end.p0(i64 4, ptr %8) #8
  br label %111

111:                                              ; preds = %110, %27, %22
  %112 = load i32, ptr %4, align 4
  ret i32 %112
}