; Function Attrs: nounwind uwtable
define dso_local range(i32 -9, 1) i32 @hs_serialize_database(ptr noundef %0, ptr noundef writeonly %1, ptr noundef writeonly %2) local_unnamed_addr #0 {
  %4 = icmp ne ptr %0, null
  %5 = icmp ne ptr %1, null
  %or.cond = and i1 %4, %5
  %6 = icmp ne ptr %2, null
  %or.cond3 = and i1 %or.cond, %6
  br i1 %or.cond3, label %7, label %validDatabase.exit.thread

7:                                                ; preds = %3
  %8 = ptrtoint ptr %0 to i64
  %9 = and i64 %8, 7
  %.not = icmp eq i64 %9, 0
  br i1 %.not, label %10, label %validDatabase.exit.thread

10:                                               ; preds = %7
  %11 = load i32, ptr %0, align 8
  %.not4.i = icmp eq i32 %11, -606348325
  br i1 %.not4.i, label %12, label %validDatabase.exit.thread

12:                                               ; preds = %10
  %13 = getelementptr inbounds nuw i8, ptr %0, i64 4
  %14 = load i32, ptr %13, align 4
  %.not5.i = icmp eq i32 %14, 84148736
  br i1 %.not5.i, label %validDatabase.exit, label %validDatabase.exit.thread

validDatabase.exit:                               ; preds = %12
  %15 = getelementptr inbounds nuw i8, ptr %0, i64 8
  %16 = load i32, ptr %15, align 8
  %17 = zext i32 %16 to i64
  %18 = add nuw nsw i64 %17, 104
  %19 = load ptr, ptr @hs_misc_alloc, align 8
  %20 = tail call ptr %19(i64 noundef %18) #6
  %.not.i55 = icmp ne ptr %20, null
  %21 = ptrtoint ptr %20 to i64
  %22 = and i64 %21, 7
  %23 = icmp eq i64 %22, 0
  %.not54 = and i1 %.not.i55, %23
  br i1 %.not54, label %26, label %24

24:                                               ; preds = %validDatabase.exit
  %spec.select.i = select i1 %23, i32 0, i32 -9
  %.0.i56 = select i1 %.not.i55, i32 %spec.select.i, i32 -2
  %25 = load ptr, ptr @hs_misc_free, align 8
  tail call void %25(ptr noundef %20) #6
  br label %validDatabase.exit.thread

26:                                               ; preds = %validDatabase.exit
  tail call void @llvm.memset.p0.i64(ptr noundef nonnull align 1 dereferenceable(1) %20, i8 0, i64 %18, i1 false)
  %27 = load i32, ptr %0, align 8
  store i32 %27, ptr %20, align 4
  %28 = getelementptr inbounds nuw i8, ptr %20, i64 4
  %29 = load i32, ptr %13, align 4
  store i32 %29, ptr %28, align 4
  %30 = getelementptr inbounds nuw i8, ptr %20, i64 8
  %31 = load i32, ptr %15, align 8
  store i32 %31, ptr %30, align 4
  %32 = getelementptr inbounds nuw i8, ptr %20, i64 12
  %33 = getelementptr inbounds nuw i8, ptr %0, i64 16
  %34 = load i64, ptr %33, align 8
  store i64 %34, ptr %32, align 4
  %35 = getelementptr inbounds nuw i8, ptr %20, i64 20
  %36 = getelementptr inbounds nuw i8, ptr %0, i64 24
  %37 = load i32, ptr %36, align 8
  store i32 %37, ptr %35, align 4
  %38 = getelementptr inbounds nuw i8, ptr %20, i64 24
  %39 = getelementptr inbounds nuw i8, ptr %0, i64 28
  %40 = load i32, ptr %39, align 4
  store i32 %40, ptr %38, align 4
  %41 = getelementptr inbounds nuw i8, ptr %20, i64 28
  %42 = getelementptr inbounds nuw i8, ptr %0, i64 32
  %43 = load i32, ptr %42, align 8
  store i32 %43, ptr %41, align 4
  %44 = getelementptr inbounds nuw i8, ptr %20, i64 32
  %45 = getelementptr inbounds nuw i8, ptr %0, i64 36
  %46 = load i32, ptr %45, align 4
  %47 = zext i32 %46 to i64
  %48 = getelementptr inbounds nuw i8, ptr %0, i64 %47
  %49 = load i32, ptr %15, align 8
  %50 = zext i32 %49 to i64
  tail call void @llvm.memcpy.p0.p0.i64(ptr nonnull align 4 %44, ptr nonnull align 1 %48, i64 %50, i1 false)
  store ptr %20, ptr %1, align 8
  store i64 %18, ptr %2, align 8
  br label %validDatabase.exit.thread

validDatabase.exit.thread:                        ; preds = %12, %10, %26, %24, %7, %3
  %.0 = phi i32 [ -1, %3 ], [ -8, %7 ], [ %.0.i56, %24 ], [ 0, %26 ], [ -5, %12 ], [ -1, %10 ]
  ret i32 %.0
}